target datalayout = "e-m:e-p270:32:32-p271:32:32-p272:64:64-i64:64-i128:128-f80:128-n8:16:32:64-S128"
target triple = "x86_64-unknown-linux-gnu"

%"struct.cineon::GenericHeader" = type { i32, i32, i32, i32, i32, i32, [8 x i8], [100 x i8], [12 x i8], [12 x i8], [36 x i8], i8, i8, [2 x i8], [8 x %"struct.cineon::ImageElement"], [2 x float], [2 x float], [2 x float], [2 x float], [200 x i8], [28 x i8], i8, i8, i8, i8, i32, i32, [20 x i8], i32, i32, [100 x i8], [12 x i8], [12 x i8], [64 x i8], [32 x i8], [32 x i8], float, float, float, [40 x i8] }
%"struct.cineon::ImageElement" = type { [2 x i8], i8, i8, i32, i32, float, float, float, float }

; Function Attrs: mustprogress uwtable
define hidden noundef zeroext i1 @_ZN6cineon6Header4ReadEPNS_8InStreamE(ptr noundef nonnull align 4 dereferenceable(2048) %this, ptr noundef %io) #6 align 2 {
entry:
  %retval = alloca i1, align 1
  %this.addr = alloca ptr, align 8
  %io.addr = alloca ptr, align 8
  %r = alloca i64, align 8
  store ptr %this, ptr %this.addr, align 8
  store ptr %io, ptr %io.addr, align 8
  %this1 = load ptr, ptr %this.addr, align 8
  %0 = load ptr, ptr %io.addr, align 8
  %vtable = load ptr, ptr %0, align 8
  %vfn = getelementptr inbounds ptr, ptr %vtable, i64 4
  %1 = load ptr, ptr %vfn, align 8
  call void %1(ptr noundef nonnull align 8 dereferenceable(16) %0)
  store i64 2048, ptr %r, align 8
  %2 = load ptr, ptr %io.addr, align 8
  %magicNumber = getelementptr inbounds %"struct.cineon::GenericHeader", ptr %this1, i32 0, i32 0
  %3 = load i64, ptr %r, align 8
  %vtable2 = load ptr, ptr %2, align 8
  %vfn3 = getelementptr inbounds ptr, ptr %vtable2, i64 5
  %4 = load ptr, ptr %vfn3, align 8
  %call = call noundef i64 %4(ptr noundef nonnull align 8 dereferenceable(16) %2, ptr noundef %magicNumber, i64 noundef %3)
  %5 = load i64, ptr %r, align 8
  %cmp = icmp ne i64 %call, %5
  br i1 %cmp, label %if.then, label %if.end

if.then:                                          ; preds = %entry
  store i1 false, ptr %retval, align 1
  br label %return

if.end:                                           ; preds = %entry
  %call4 = call noundef zeroext i1 @_ZN6cineon6Header8ValidateEv(ptr noundef nonnull align 4 dereferenceable(2048) %this1)
  store i1 %call4, ptr %retval, align 1
  br label %return

return:                                           ; preds = %if.end, %if.then
  %6 = load i1, ptr %retval, align 1
  ret i1 %6
}