; Function Attrs: mustprogress uwtable
define hidden noundef zeroext i1 @_ZN6cineon6Header4ReadEPNS_8InStreamE(ptr noundef nonnull align 4 dereferenceable(2048) %this, ptr noundef %io) local_unnamed_addr #8 align 2 {
entry:
  %vtable = load ptr, ptr %io, align 8
  %vfn = getelementptr inbounds i8, ptr %vtable, i64 32
  %0 = load ptr, ptr %vfn, align 8
  tail call void %0(ptr noundef nonnull align 8 dereferenceable(16) %io)
  %vtable2 = load ptr, ptr %io, align 8
  %vfn3 = getelementptr inbounds i8, ptr %vtable2, i64 40
  %1 = load ptr, ptr %vfn3, align 8
  %call = tail call noundef i64 %1(ptr noundef nonnull align 8 dereferenceable(16) %io, ptr noundef nonnull %this, i64 noundef 2048)
  %cmp.not = icmp eq i64 %call, 2048
  br i1 %cmp.not, label %if.end, label %return

if.end:                                           ; preds = %entry
  %call4 = tail call noundef zeroext i1 @_ZN6cineon6Header8ValidateEv(ptr noundef nonnull align 4 dereferenceable(2048) %this)
  br label %return

return:                                           ; preds = %entry, %if.end
  %retval.0 = phi i1 [ %call4, %if.end ], [ false, %entry ]
  ret i1 %retval.0
}